target datalayout = "e-m:e-p270:32:32-p271:32:32-p272:64:64-i64:64-i128:128-f80:128-n8:16:32:64-S128"
target triple = "x86_64-unknown-linux-gnu"

%"class.std::set.0" = type { %"class.std::_Rb_tree.1" }
%"class.std::_Rb_tree.1" = type { %"struct.std::_Rb_tree<QuantLib::Observer *, QuantLib::Observer *, std::_Identity<QuantLib::Observer *>, std::less<QuantLib::Observer *>>::_Rb_tree_impl" }
%"struct.std::_Rb_tree<QuantLib::Observer *, QuantLib::Observer *, std::_Identity<QuantLib::Observer *>, std::less<QuantLib::Observer *>>::_Rb_tree_impl" = type { [8 x i8], %"struct.std::_Rb_tree_header" }
%"struct.std::_Rb_tree_header" = type { %"struct.std::_Rb_tree_node_base", i64 }
%"struct.std::_Rb_tree_node_base" = type { i32, ptr, ptr, ptr }
%"class.std::set" = type { %"class.std::_Rb_tree" }
%"class.std::_Rb_tree" = type { %"struct.std::_Rb_tree<boost::shared_ptr<QuantLib::Observable>, boost::shared_ptr<QuantLib::Observable>, std::_Identity<boost::shared_ptr<QuantLib::Observable>>, std::less<boost::shared_ptr<QuantLib::Observable>>>::_Rb_tree_impl" }
%"struct.std::_Rb_tree<boost::shared_ptr<QuantLib::Observable>, boost::shared_ptr<QuantLib::Observable>, std::_Identity<boost::shared_ptr<QuantLib::Observable>>, std::less<boost::shared_ptr<QuantLib::Observable>>>::_Rb_tree_impl" = type { [8 x i8], %"struct.std::_Rb_tree_header" }
%"class.boost::detail::shared_count" = type { ptr }
%"class.QuantLib::Observable" = type { ptr, %"class.std::set.0" }
%"class.QuantLib::DayCounter" = type { %"class.boost::shared_ptr.18" }
%"class.boost::shared_ptr.18" = type { ptr, %"class.boost::detail::shared_count" }
%"class.QuantLib::SabrSmileSection" = type { %"class.QuantLib::SmileSection.base", double, double, double, double, double, double, %"class.QuantLib::Observable", %"class.QuantLib::Observer" }
%"class.QuantLib::SmileSection.base" = type { ptr, i8, %"class.QuantLib::Date", %"class.QuantLib::Date", %"class.QuantLib::DayCounter", double, i32, double }
%"class.QuantLib::Date" = type { i64 }
%"class.QuantLib::Observer" = type { ptr, %"class.std::set" }

; Function Attrs: inlinehint mustprogress nounwind uwtable
define linkonce_odr noundef nonnull align 8 dereferenceable(8) ptr @_ZSt3maxIdERKT_S2_S2_(ptr noundef nonnull align 8 dereferenceable(8) %__a, ptr noundef nonnull align 8 dereferenceable(8) %__b) #5 comdat {
entry:
  %retval = alloca ptr, align 8
  %__a.addr = alloca ptr, align 8
  %__b.addr = alloca ptr, align 8
  store ptr %__a, ptr %__a.addr, align 8, !tbaa !3
  store ptr %__b, ptr %__b.addr, align 8, !tbaa !3
  %0 = load ptr, ptr %__a.addr, align 8, !tbaa !3
  %1 = load double, ptr %0, align 8, !tbaa !14
  %2 = load ptr, ptr %__b.addr, align 8, !tbaa !3
  %3 = load double, ptr %2, align 8, !tbaa !14
  %cmp = fcmp olt double %1, %3
  br i1 %cmp, label %if.then, label %if.end

if.then:                                          ; preds = %entry
  %4 = load ptr, ptr %__b.addr, align 8, !tbaa !3
  store ptr %4, ptr %retval, align 8
  br label %return

if.end:                                           ; preds = %entry
  %5 = load ptr, ptr %__a.addr, align 8, !tbaa !3
  store ptr %5, ptr %retval, align 8
  br label %return

return:                                           ; preds = %if.end, %if.then
  %6 = load ptr, ptr %retval, align 8
  ret ptr %6
}

; Function Attrs: mustprogress uwtable
define noundef double @_ZNK8QuantLib16SabrSmileSection14volatilityImplEd(ptr noundef nonnull align 8 dereferenceable(120) %this, double noundef %strike) unnamed_addr #2 align 2 {
entry:
  %this.addr = alloca ptr, align 8
  %strike.addr = alloca double, align 8
  %ref.tmp = alloca double, align 8
  store ptr %this, ptr %this.addr, align 8, !tbaa !3
  store double %strike, ptr %strike.addr, align 8, !tbaa !14
  %this1 = load ptr, ptr %this.addr, align 8
  call void @llvm.lifetime.start.p0(i64 8, ptr %ref.tmp) #12
  %vtable = load ptr, ptr %this1, align 8, !tbaa !12
  %vfn = getelementptr inbounds ptr, ptr %vtable, i64 8
  %0 = load ptr, ptr %vfn, align 8
  %call = call noundef double %0(ptr noundef nonnull align 8 dereferenceable(72) %this1)
  %sub = fsub double 1.000000e-05, %call
  store double %sub, ptr %ref.tmp, align 8, !tbaa !14
  %call2 = call noundef nonnull align 8 dereferenceable(8) ptr @_ZSt3maxIdERKT_S2_S2_(ptr noundef nonnull align 8 dereferenceable(8) %ref.tmp, ptr noundef nonnull align 8 dereferenceable(8) %strike.addr)
  %1 = load double, ptr %call2, align 8, !tbaa !14
  store double %1, ptr %strike.addr, align 8, !tbaa !14
  call void @llvm.lifetime.end.p0(i64 8, ptr %ref.tmp) #12
  %2 = load double, ptr %strike.addr, align 8, !tbaa !14
  %forward_ = getelementptr inbounds nuw %"class.QuantLib::SabrSmileSection", ptr %this1, i32 0, i32 5
  %3 = load double, ptr %forward_, align 8, !tbaa !18
  %vtable3 = load ptr, ptr %this1, align 8, !tbaa !12
  %vfn4 = getelementptr inbounds ptr, ptr %vtable3, i64 10
  %4 = load ptr, ptr %vfn4, align 8
  %call5 = call noundef double %4(ptr noundef nonnull align 8 dereferenceable(72) %this1)
  %alpha_ = getelementptr inbounds nuw %"class.QuantLib::SabrSmileSection", ptr %this1, i32 0, i32 1
  %5 = load double, ptr %alpha_, align 8, !tbaa !27
  %beta_ = getelementptr inbounds nuw %"class.QuantLib::SabrSmileSection", ptr %this1, i32 0, i32 2
  %6 = load double, ptr %beta_, align 8, !tbaa !28
  %nu_ = getelementptr inbounds nuw %"class.QuantLib::SabrSmileSection", ptr %this1, i32 0, i32 3
  %7 = load double, ptr %nu_, align 8, !tbaa !29
  %rho_ = getelementptr inbounds nuw %"class.QuantLib::SabrSmileSection", ptr %this1, i32 0, i32 4
  %8 = load double, ptr %rho_, align 8, !tbaa !30
  %shift_ = getelementptr inbounds nuw %"class.QuantLib::SabrSmileSection", ptr %this1, i32 0, i32 6
  %9 = load double, ptr %shift_, align 8, !tbaa !26
  %vtable6 = load ptr, ptr %this1, align 8, !tbaa !12
  %vfn7 = getelementptr inbounds ptr, ptr %vtable6, i64 7
  %10 = load ptr, ptr %vfn7, align 8
  %call8 = call noundef i32 %10(ptr noundef nonnull align 8 dereferenceable(72) %this1)
  %call9 = call noundef double @_ZN8QuantLib27unsafeShiftedSabrVolatilityEddddddddNS_14VolatilityTypeE(double noundef %2, double noundef %3, double noundef %call5, double noundef %5, double noundef %6, double noundef %7, double noundef %8, double noundef %9, i32 noundef %call8)
  ret double %call9
}